ccopy_reg
_reconstructor
p0
(cnetworkx.classes.digraph
DiGraph
p1
c__builtin__
object
p2
Ntp3
Rp4
(dp5
S'node'
p6
(dp7
S'0x4059a6'
p8
(dp9
S'calltype'
p10
Vcdecl
p11
sS'apicallcount'
p12
I0
sS'strings'
p13
(lp14
sS'calls'
p15
(lp16
sS'size'
p17
I35
ssS'0x4084f5'
p18
(dp19
g10
Vcdecl
p20
sg12
I0
sg13
(lp21
sg15
(lp22
sg17
I11
ssS'0x4033c0'
p23
(dp24
g10
Vcdecl
p25
sg12
I0
sg13
(lp26
sg15
(lp27
sg17
I123
ssS'0x403ce0'
p28
(dp29
g10
Vcdecl
p30
sg12
I0
sg13
(lp31
sg15
(lp32
sg17
I88
ssS'0x4050fe'
p33
(dp34
g10
Vcdecl
p35
sg12
I1
sg13
(lp36
sg15
(lp37
(lp38
S'0x405236'
p39
aVUnhandledExceptionFilter
p40
aasg17
I321
ssS'0x407d87'
p41
(dp42
g10
Vcdecl
p43
sg12
I9
sg13
(lp44
sg15
(lp45
(lp46
S'0x407f71'
p47
aVMultiByteToWideChar
p48
aa(lp49
S'0x407f10'
p50
aVMultiByteToWideChar
p51
aa(lp52
S'0x407dc5'
p53
aVCompareStringW
p54
aa(lp55
S'0x407e91'
p56
aVGetCPInfo
p57
aa(lp58
S'0x407fe8'
p59
aVCompareStringW
p60
aa(lp61
S'0x407f84'
p62
aVMultiByteToWideChar
p63
aa(lp64
S'0x407fd0'
p65
aVMultiByteToWideChar
p66
aa(lp67
S'0x407e40'
p68
aVCompareStringA
p69
aa(lp70
S'0x407de2'
p71
aVCompareStringA
p72
aasg17
I637
ssS'0x407caf'
p73
(dp74
g10
Vcdecl
p75
sg12
I0
sg13
(lp76
sg15
(lp77
sg17
I43
ssS'0x4031c0'
p78
(dp79
g10
Vcdecl
p80
sg12
I0
sg13
(lp81
sg15
(lp82
sg17
I240
ssS'0x4076d5'
p83
(dp84
g10
Vcdecl
p85
sg12
I0
sg13
(lp86
(lp87
S'0x4076f3'
p88
aS'; \\\\ bt '
p89
aasg15
(lp90
sg17
I103
ssS'0x406b90'
p91
(dp92
g10
Vcdecl
p93
sg12
I0
sg13
(lp94
sg15
(lp95
sg17
I104
ssS'0x405712'
p96
(dp97
g10
Vcdecl
p98
sg12
I5
sg13
(lp99
sg15
(lp100
(lp101
S'0x4058af'
p102
aVSetHandleCount
p103
aa(lp104
S'0x405878'
p105
aVGetFileType
p106
aa(lp107
S'0x40586a'
p108
aVGetStdHandle
p109
aa(lp110
S'0x405811'
p111
aVGetFileType
p112
aa(lp113
S'0x40576b'
p114
aVGetStartupInfoA
p115
aasg17
I427
ssS'0x407172'
p116
(dp117
g10
Vcdecl
p118
sg12
I1
sg13
(lp119
(lp120
S'0x407284'
p121
aS'@AA;'
p122
aasg15
(lp123
(lp124
S'0x407186'
p125
aVGetCPInfo
p126
aasg17
I389
ssS'0x408004'
p127
(dp128
g10
Vcdecl
p129
sg12
I1
sg13
(lp130
(lp131
S'0x40805f'
p132
aS'QSUV'
p133
aasg15
(lp134
(lp135
S'0x408177'
p136
aVSetEnvironmentVariableA
p137
aasg17
I391
ssS'0x406f02'
p138
(dp139
g10
Vcdecl
p140
sg12
I0
sg13
(lp141
(lp142
S'0x406f1a'
p143
aS'         (((((                  H'
p144
aasg15
(lp145
sg17
I49
ssS'0x405282'
p146
(dp147
g10
Vcdecl
p148
sg12
I0
sg13
(lp149
sg15
(lp150
sg17
I88
ssS'0x403d40'
p151
(dp152
g10
Vcdecl
p153
sg12
I0
sg13
(lp154
sg15
(lp155
sg17
I291
ssS'0x403cbf'
p156
(dp157
g10
Vcdecl
p158
sg12
I0
sg13
(lp159
sg15
(lp160
sg17
I26
ssS'0x40773c'
p161
(dp162
g10
Vcdecl
p163
sg12
I1
sg13
(lp164
sg15
(lp165
(lp166
S'0x40778f'
p167
aVSetStdHandle
p168
aasg17
I122
ssS'0x4049b0'
p169
(dp170
g10
Vcdecl
p171
sg12
I0
sg13
(lp172
sg15
(lp173
sg17
I52
ssS'0x40128a'
p174
(dp175
g10
Vcdecl
p176
sg12
I0
sg13
(lp177
(lp178
S'0x4012b4'
p179
aS'PART '
p180
aa(lp181
S'0x4012dd'
p182
aS'JOIN '
p183
aa(lp184
S'0x401300'
p185
aS'PART %s \\\\ r \\\\ n'
p186
aa(lp187
S'0x4013fd'
p188
aS'PRIVMSG '
p189
aa(lp190
S'0x4015c9'
p191
aS':%s NICK '
p192
aasg15
(lp193
(lp194
S'0x4016b2'
p195
aVWSAGetLastError
p196
aa(lp197
S'0x401343'
p198
aVsend
p199
aa(lp200
S'0x401687'
p201
ag199
aasg17
I1096
ssS'0x4059c9'
p202
(dp203
g10
Vcdecl
p204
sg12
I0
sg13
(lp205
sg15
(lp206
sg17
I9
ssS'0x4034c0'
p207
(dp208
g10
Vcdecl
p209
sg12
I0
sg13
(lp210
sg15
(lp211
sg17
I56
ssS'0x40824a'
p212
(dp213
g10
Vcdecl
p214
sg12
I2
sg13
(lp215
(lp216
S'0x4082e2'
p217
aS'_^]['
p218
aasg15
(lp219
(lp220
S'0x4082af'
p221
aVCloseHandle
p222
aa(lp223
S'0x4082b9'
p224
aVGetLastError
p225
aasg17
I179
ssS'0x407d30'
p226
(dp227
g10
Vcdecl
p228
sg12
I2
sg13
(lp229
sg15
(lp230
(lp231
S'0x407d5c'
p232
aVFlushFileBuffers
p233
aa(lp234
S'0x407d66'
p235
aVGetLastError
p236
aasg17
I87
ssS'0x403f59'
p237
(dp238
g10
Vcdecl
p239
sg12
I0
sg13
(lp240
sg15
(lp241
sg17
I37
ssS'0x402507'
p242
(dp243
g10
Vcdecl
p244
sg12
I0
sg13
(lp245
sg15
(lp246
sg17
I10
ssS'0x4025e2'
p247
(dp248
g10
Vcdecl
p249
sg12
I0
sg13
(lp250
(lp251
S'0x402619'
p252
aS'Server "%s" crashed.'
p253
aa(lp254
S'0x402644'
p255
aS'Couldn\'t crash "%s".'
p256
aasg15
(lp257
sg17
I142
ssS'0x4055e0'
p258
(dp259
g10
Vcdecl
p260
sg12
I8
sg13
(lp261
(lp262
S'0x405653'
p263
aS'@@f9'
p264
aa(lp265
S'0x40565a'
p266
ag264
aasg15
(lp267
(lp268
S'0x405673'
p269
aVWideCharToMultiByte
p270
aa(lp271
S'0x4056ff'
p272
aVFreeEnvironmentStringsA
p273
aa(lp274
S'0x4056c1'
p275
aVGetEnvironmentStrings
p276
aa(lp277
S'0x4055fb'
p278
aVGetEnvironmentStringsW
p279
aa(lp280
S'0x40563b'
p281
aVGetEnvironmentStringsW
p282
aa(lp283
S'0x405695'
p284
aVWideCharToMultiByte
p285
aa(lp286
S'0x40560f'
p287
aVGetEnvironmentStrings
p288
aa(lp289
S'0x4056ae'
p290
aVFreeEnvironmentStringsW
p291
aasg17
I306
ssS'0x405ab1'
p292
(dp293
g10
Vcdecl
p294
sg12
I0
sg13
(lp295
sg15
(lp296
sg17
I27
ssS'0x402a8a'
p297
(dp298
g10
Vcdecl
p299
sg12
I1
sg13
(lp300
sg15
(lp301
(lp302
S'0x402a97'
p303
aVMessageBoxA
p304
aasg17
I23
ssS'0x406b1c'
p305
(dp306
g10
Vcdecl
p307
sg12
I1
sg13
(lp308
sg15
(lp309
(lp310
S'0x406b65'
p311
aVWideCharToMultiByte
p312
aasg17
I104
ssS'0x405cb1'
p313
(dp314
g10
Vcdecl
p315
sg12
I0
sg13
(lp316
sg15
(lp317
sg17
I43
ssS'0x4031d0'
p318
(dp319
g10
Vcdecl
p320
sg12
I0
sg13
(lp321
sg15
(lp322
sg17
I224
ssS'0x40486c'
p323
(dp324
g10
Vcdecl
p325
sg12
I0
sg13
(lp326
sg15
(lp327
sg17
I53
ssS'0x40867d'
p328
(dp329
g10
Vcdecl
p330
sg12
I0
sg13
(lp331
sg15
(lp332
sg17
I203
ssS'0x40593e'
p333
(dp334
g10
Vcdecl
p335
sg12
I0
sg13
(lp336
sg15
(lp337
sg17
I104
ssS'0x40591c'
p338
(dp339
g10
Vcdecl
p340
sg12
I0
sg13
(lp341
sg15
(lp342
sg17
I34
ssS'0x407116'
p343
(dp344
g10
Vcdecl
p345
sg12
I0
sg13
(lp346
sg15
(lp347
sg17
I51
ssS'0x40106a'
p348
(dp349
g10
Vcdecl
p350
sg12
I0
sg13
(lp351
sg15
(lp352
sg17
I59
ssS'0x403c04'
p353
(dp354
g10
Vcdecl
p355
sg12
I0
sg13
(lp356
sg15
(lp357
sg17
I17
ssS'0x402aa1'
p358
(dp359
g10
Vcdecl
p360
sg12
I21
sg13
(lp361
(lp362
S'0x402d4c'
p363
aS'j \\\\ th0'
p364
aa(lp365
S'0x402ddf'
p366
aS'jdh \\\\ '
p367
aa(lp368
S'0x402aef'
p369
aS'SC_Modder'
p370
aa(lp371
S'0x402b4c'
p372
aS'Mar 19 2006'
p373
aa(lp374
S'0x402b51'
p375
aS'Winkey bot compiled on %s is ready. Logged in as "%s".'
p376
aa(lp377
S'0x402b7d'
p378
aS'say '
p379
aa(lp380
S'0x402bad'
p381
aS'user'
p382
aa(lp383
S'0x402be0'
p384
aS'Logged in as "%s".'
p385
aa(lp386
S'0x402c0c'
p387
aS'logoff'
p388
aa(lp389
S'0x402c41'
p390
aS'SeShutdownPrivilege'
p391
aa(lp392
S'0x402c8b'
p393
aS'Logging off . . .'
p394
aa(lp395
S'0x402ca1'
p396
aS'shutdown'
p397
aa(lp398
S'0x402cd6'
p399
aS'SeShutdownPrivilege'
p400
aa(lp401
S'0x402d20'
p402
aS'Shutting down computer . . .'
p403
aa(lp404
S'0x402d36'
p405
aS'msgbox '
p406
aa(lp407
S'0x402d6f'
p408
aS'Popped up messagebox containing "%s" . . .'
p409
aa(lp410
S'0x402d9b'
p411
aS'listwin'
p412
aa(lp413
S'0x402de1'
p414
aS"Error: Couldn't grab top window."
p415
aa(lp416
S'0x402df7'
p417
aS'Windows open on this computer: '
p418
aa(lp419
S'0x402ef5'
p420
aS'exec '
p421
aa(lp422
S'0x402fb3'
p423
aS'Error executing cmd "%s".'
p424
aa(lp425
S'0x402ffb'
p426
aS'Executed "%s" with param "%s".'
p427
aa(lp428
S'0x403027'
p429
aS'grcrash '
p430
aa(lp431
S'0x403060'
p432
aS'clswnd '
p433
aa(lp434
S'0x4030a1'
p435
aS'Couldn\'t find window "%s".'
p436
aa(lp437
S'0x4030e2'
p438
aS'Closed window "%s".'
p439
aa(lp440
S'0x40310b'
p441
aS'exit'
p442
aa(lp443
S'0x403123'
p444
aS'/QUIT :Exit cmd'
p445
aasg15
(lp446
(lp447
S'0x403085'
p448
aVFindWindowA
p449
aa(lp450
S'0x402bd3'
p451
aVGetUserNameA
p452
aa(lp453
S'0x402ea4'
p454
aVGetWindow
p455
aa(lp456
S'0x402cdd'
p457
aVLookupPrivilegeValueA
p458
aa(lp459
S'0x4030d5'
p460
aVSendMessageA
p461
aa(lp462
S'0x402c48'
p463
aVLookupPrivilegeValueA
p464
aa(lp465
S'0x403053'
p466
aVCreateThread
p467
aa(lp468
S'0x402d1a'
p469
aVExitWindowsEx
p470
aa(lp471
S'0x402c2d'
p472
aVGetCurrentProcess
p473
aa(lp474
S'0x402d0d'
p475
aVAdjustTokenPrivileges
p476
aa(lp477
S'0x402fa2'
p478
aVCreateProcessA
p479
aa(lp480
S'0x402c85'
p481
aVExitWindowsEx
p482
aa(lp483
S'0x402d62'
p484
aVCreateThread
p485
aa(lp486
S'0x402db7'
p487
aVGetForegroundWindow
p488
aa(lp489
S'0x402dcc'
p490
aVGetDesktopWindow
p491
aa(lp492
S'0x402cc2'
p493
aVGetCurrentProcess
p494
aa(lp495
S'0x402cc9'
p496
aVOpenProcessToken
p497
aa(lp498
S'0x402c34'
p499
aVOpenProcessToken
p500
aa(lp501
S'0x402b3f'
p502
aVGetUserNameA
p503
aa(lp504
S'0x402e2d'
p505
aVSendMessageA
p506
aa(lp507
S'0x402c78'
p508
aVAdjustTokenPrivileges
p509
aasg17
I1694
ssS'0x4064bc'
p510
(dp511
g10
Vcdecl
p512
sg12
I0
sg13
(lp513
sg15
(lp514
sg17
I758
ssS'0x4016d2'
p515
(dp516
g10
Vcdecl
p517
sg12
I1
sg13
(lp518
(lp519
S'0x4016f2'
p520
aS'Warning: No port specified, using default'
p521
aa(lp522
S'0x40170c'
p523
aS'Error: No hostname specified.'
p524
aa(lp525
S'0x40172d'
p526
aS'Error: No nickname specified.'
p527
aa(lp528
S'0x401756'
p529
aS'Warning: already connected'
p530
aa(lp531
S'0x40186c'
p532
aS"Error: Couldn't resolve hostname."
p533
aa(lp534
S'0x401890'
p535
aS"Error: Couldn't connect to hostname."
p536
aa(lp537
S'0x4018d3'
p538
aS'NICK %s \\\\ r \\\\ n'
p539
aa(lp540
S'0x401920'
p541
aS'Error sending packet.'
p542
aa(lp543
S'0x40193b'
p544
aS'USER blah blah blah blah \\\\ r \\\\ n'
p545
aasg15
(lp546
(lp547
S'0x4018ab'
p548
aVSleep
p549
aa(lp550
S'0x40182e'
p551
ag196
aa(lp552
S'0x401814'
p553
aVsocket
p554
aa(lp555
S'0x40190a'
p556
ag199
aa(lp557
S'0x40196e'
p558
ag199
aasg17
I701
ssS'0x40198f'
p559
(dp560
g10
Vcdecl
p561
sg12
I0
sg13
(lp562
(lp563
S'0x401a15'
p564
aS'Error: Disconnected'
p565
aasg15
(lp566
(lp567
S'0x4019ea'
p568
aVrecv
p569
aasg17
I326
ssS'0x4058bd'
p570
(dp571
g10
Vcdecl
p572
sg12
I2
sg13
(lp573
sg15
(lp574
(lp575
S'0x4058ce'
p576
aVHeapCreate
p577
aa(lp578
S'0x4058ec'
p579
aVHeapDestroy
p580
aasg17
I60
ssS'0x405cdc'
p581
(dp582
g10
Vcdecl
p583
sg12
I3
sg13
(lp584
sg15
(lp585
(lp586
S'0x405f8e'
p587
aVVirtualFree
p588
aa(lp589
S'0x405f33'
p590
aVVirtualFree
p591
aa(lp592
S'0x405fa0'
p593
aVHeapFree
p594
aasg17
I811
ssS'0x40542c'
p595
(dp596
g10
Vcdecl
p597
sg12
I0
sg13
(lp598
sg15
(lp599
sg17
I436
ssS'0x40795f'
p600
(dp601
g10
Vcdecl
p602
sg12
I0
sg13
(lp603
(lp604
S'0x407961'
p605
aS'SVW3'
p606
aasg15
(lp607
sg17
I9
ssS'0x4082fd'
p608
(dp609
g10
Vcdecl
p610
sg12
I0
sg13
(lp611
sg15
(lp612
sg17
I43
ssS'0x4077b6'
p613
(dp614
g10
Vcdecl
p615
sg12
I0
sg13
(lp616
sg15
(lp617
sg17
I61
ssS'0x406df0'
p618
(dp619
g10
Vcdecl
p620
sg12
I0
sg13
(lp621
sg15
(lp622
sg17
I132
ssS'0x404016'
p623
(dp624
g10
Vcdecl
p625
sg12
I0
sg13
(lp626
sg15
(lp627
sg17
I277
ssS'0x401000'
p628
(dp629
g10
Vcdecl
p630
sg12
I0
sg13
(lp631
sg15
(lp632
sg17
I84
ssS'0x401279'
p633
(dp634
g10
Vcdecl
p635
sg12
I0
sg13
(lp636
sg15
(lp637
sg17
I17
ssS'0x403583'
p638
(dp639
g10
Vcdecl
p640
sg12
I0
sg13
(lp641
(lp642
S'0x403587'
p643
aS'SUVW'
p644
aasg15
(lp645
sg17
I11
ssS'0x403c15'
p646
(dp647
g10
Vcdecl
p648
sg12
I0
sg13
(lp649
sg15
(lp650
sg17
I17
ssS'0x404c57'
p651
(dp652
g10
Vcdecl
p653
sg12
I0
sg13
(lp654
(lp655
S'0x404c8f'
p656
aS'WWWj'
p657
aasg15
(lp658
sg17
I428
ssS'0x4048d2'
p659
(dp660
g10
Vcdecl
p661
sg12
I0
sg13
(lp662
sg15
(lp663
sg17
I56
ssS'0x403fa1'
p664
(dp665
g10
Vcdecl
p666
sg12
I0
sg13
(lp667
sg15
(lp668
sg17
I1
ssS'0x403fa2'
p669
(dp670
g10
Vcdecl
p671
sg12
I0
sg13
(lp672
sg15
(lp673
sg17
I18
ssS'0x402511'
p674
(dp675
g10
Vcdecl
p676
sg12
I0
sg13
(lp677
sg15
(lp678
sg17
I15
ssS'0x402520'
p679
(dp680
g10
Vcdecl
p681
sg12
I1
sg13
(lp682
(lp683
S'0x4025a8'
p684
aS'NICK q%d \\\\ r \\\\ n'
p685
aasg15
(lp686
(lp687
S'0x402598'
p688
aVGetTickCount
p689
aasg17
I194
ssS'0x407a8b'
p690
(dp691
g10
Vcdecl
p692
sg12
I9
sg13
(lp693
(lp694
S'0x407c86'
p695
aS'VSh '
p696
aasg15
(lp697
(lp698
S'0x407bc2'
p699
aVMultiByteToWideChar
p700
aa(lp701
S'0x407ae9'
p702
aVLCMapStringA
p703
aa(lp704
S'0x407c73'
p705
aVLCMapStringW
p706
aa(lp707
S'0x407b6a'
p708
aVMultiByteToWideChar
p709
aa(lp710
S'0x407b32'
p711
aVLCMapStringA
p712
aa(lp713
S'0x407bd8'
p714
aVLCMapStringW
p715
aa(lp716
S'0x407acd'
p717
aVLCMapStringW
p718
aa(lp719
S'0x407c0b'
p720
aVLCMapStringW
p721
aa(lp722
S'0x407c98'
p723
aVWideCharToMultiByte
p724
aasg17
I548
ssS'0x4032b0'
p725
(dp726
g10
Vcdecl
p727
sg12
I0
sg13
(lp728
sg15
(lp729
sg17
I254
ssS'0x406a3d'
p730
(dp731
g10
Vcdecl
p732
sg12
I0
sg13
(lp733
sg15
(lp734
sg17
I38
ssS'0x405acc'
p735
(dp736
g10
Vcdecl
p737
sg12
I0
sg13
(lp738
sg15
(lp739
sg17
I57
ssS'0x403f4e'
p740
(dp741
g10
Vcdecl
p742
sg12
I0
sg13
(lp743
sg15
(lp744
sg17
I11
ssS'0x40218d'
p745
(dp746
g10
Vcdecl
p747
sg12
I0
sg13
(lp748
sg15
(lp749
(lp750
S'0x4021e7'
p751
aVinet_ntoa
p752
aa(lp753
S'0x40220b'
p754
aVconnect
p755
aa(lp756
S'0x4021ae'
p757
aVinet_addr
p758
aa(lp759
S'0x4021ed'
p760
ag758
aa(lp761
S'0x4021c7'
p762
aVgethostbyname
p763
aa(lp764
S'0x4021a1'
p765
aVhtons
p766
aasg17
I151
ssS'0x4033ae'
p767
(dp768
g10
Vcdecl
p769
sg12
I0
sg13
(lp770
sg15
(lp771
sg17
I14
ssS'0x406f33'
p772
(dp773
g10
Vcdecl
p774
sg12
I1
sg13
(lp775
(lp776
S'0x406f74'
p777
aS'90tr'
p778
aa(lp779
S'0x4070b6'
p780
aS'Wj@Y3?3@'
p781
aasg15
(lp782
(lp783
S'0x406f7b'
p784
aVGetCPInfo
p785
aasg17
I409
ssS'0x403590'
p786
(dp787
g10
Vcdecl
p788
sg12
I0
sg13
(lp789
sg15
(lp790
sg17
I821
ssS'0x405b05'
p791
(dp792
g10
Vcdecl
p793
sg12
I3
sg13
(lp794
(lp795
S'0x405bd8'
p796
aS'Runtime Error! \\\\ n \\\\ nProgram: '
p797
aa(lp798
S'0x405b82'
p799
aS'<program name unknown>'
p800
aasg15
(lp801
(lp802
S'0x405c4f'
p803
aVWriteFile
p804
aa(lp805
S'0x405c48'
p806
aVGetStdHandle
p807
aa(lp808
S'0x405b72'
p809
aVGetModuleFileNameA
p810
aasg17
I339
ssS'0x404e03'
p811
(dp812
g10
Vcdecl
p813
sg12
I0
sg13
(lp814
sg15
(lp815
sg17
I320
ssS'0x4067b2'
p816
(dp817
g10
Vcdecl
p818
sg12
I2
sg13
(lp819
sg15
(lp820
(lp821
S'0x40680e'
p822
aVGetLastError
p823
aa(lp824
S'0x406801'
p825
aVSetFilePointer
p826
aasg17
I154
ssS'0x4052da'
p827
(dp828
g10
Vcdecl
p829
sg12
I0
sg13
(lp830
sg15
(lp831
sg17
I185
ssS'0x4079de'
p832
(dp833
g10
Vcdecl
p834
sg12
I0
sg13
(lp835
sg15
(lp836
sg17
I63
ssS'0x405393'
p837
(dp838
g10
Vcdecl
p839
sg12
I1
sg13
(lp840
sg15
(lp841
(lp842
S'0x4053b6'
p843
aVGetModuleFileNameA
p844
aasg17
I153
ssS'0x4059f4'
p845
(dp846
g10
Vcdecl
p847
sg12
I0
sg13
(lp848
(lp849
S'0x405a92'
p850
aS']_^['
p851
aa(lp852
S'0x405a8b'
p853
ag851
aasg15
(lp854
sg17
I189
ssS'0x40503c'
p855
(dp856
g10
Vcdecl
p857
sg12
I0
sg13
(lp858
(lp859
S'0x4050e1'
p860
aS'SVW3'
p861
aasg15
(lp862
sg17
I194
ssS'0x4085d0'
p863
(dp864
g10
Vcdecl
p865
sg12
I0
sg13
(lp866
sg15
(lp867
sg17
I173
ssS'0x40343b'
p868
(dp869
g10
Vcdecl
p870
sg12
I0
sg13
(lp871
sg15
(lp872
sg17
I82
ssS'0x407313'
p873
(dp874
g10
Vcdecl
p875
sg12
I4
sg13
(lp876
(lp877
S'0x407350'
p878
aS'GetLastActivePopup'
p879
aa(lp880
S'0x407348'
p881
aS'GetActiveWindow'
p882
aa(lp883
S'0x407337'
p884
aS'MessageBoxA'
p885
aa(lp886
S'0x407320'
p887
aS'user32.dll'
p888
aasg15
(lp889
(lp890
S'0x40734e'
p891
aVGetProcAddress
p892
aa(lp893
S'0x40735b'
p894
aVGetProcAddress
p895
aa(lp896
S'0x407325'
p897
aVLoadLibraryA
p898
aa(lp899
S'0x40733d'
p900
aVGetProcAddress
p901
aasg17
I137
ssS'0x402230'
p902
(dp903
g10
Vcdecl
p904
sg12
I0
sg13
(lp905
(lp906
S'0x402244'
p907
aS'GRBot V0.1 Beta'
p908
aasg15
(lp909
(lp910
S'0x4022d4'
p911
ag569
aa(lp912
S'0x402287'
p913
ag755
aa(lp914
S'0x40225e'
p915
ag758
aa(lp916
S'0x40226e'
p917
ag766
aasg17
I229
ssS'0x407968'
p918
(dp919
g10
Vcdecl
p920
sg12
I0
sg13
(lp921
sg15
(lp922
sg17
I109
ssS'0x404935'
p923
(dp924
g10
Vcdecl
p925
sg12
I0
sg13
(lp926
sg15
(lp927
sg17
I117
ssS'0x406007'
p928
(dp929
g10
Vcdecl
p930
sg12
I0
sg13
(lp931
(lp932
S'0x40608a'
p933
aS'uY;]'
p934
aasg15
(lp935
sg17
I777
ssS'0x40484f'
p936
(dp937
g10
Vcdecl
p938
sg12
I0
sg13
(lp939
sg15
(lp940
sg17
I29
ssS'0x40484c'
p941
(dp942
g10
Vcdecl
p943
sg12
I0
sg13
(lp944
sg15
(lp945
sg17
I3
ssS'0x403973'
p946
(dp947
g10
Vcdecl
p948
sg12
I0
sg13
(lp949
sg15
(lp950
sg17
I40
ssS'0x408328'
p951
(dp952
g10
Vcdecl
p953
sg12
I2
sg13
(lp954
(lp955
S'0x408354'
p956
aS'_^]['
p957
aa(lp958
S'0x40833e'
p959
ag957
aasg15
(lp960
(lp961
S'0x408418'
p962
aVHeapReAlloc
p963
aa(lp964
S'0x4083d7'
p965
aVHeapAlloc
p966
aasg17
I288
ssS'0x405c73'
p967
(dp968
g10
Vcdecl
p969
sg12
I1
sg13
(lp970
sg15
(lp971
(lp972
S'0x405c80'
p973
aVHeapAlloc
p974
aasg17
I62
ssS'0x40412b'
p975
(dp976
g10
Vcdecl
p977
sg12
I0
sg13
(lp978
sg15
(lp979
sg17
I1825
ssS'0x4038c5'
p980
(dp981
g10
Vcdecl
p982
sg12
I0
sg13
(lp983
(lp984
S'0x4038e2'
p985
aS'SunMonTueWedThuFriSat|JanFebMarAprMayJunJulAugSepOctNovDec'
p986
aasg15
(lp987
sg17
I174
ssS'0x403afb'
p988
(dp989
g10
Vcdecl
p990
sg12
I3
sg13
(lp991
sg15
(lp992
(lp993
S'0x403b67'
p994
aVGetTimeZoneInformation
p995
aa(lp996
S'0x403b12'
p997
aVGetSystemTime
p998
aa(lp999
S'0x403b08'
p1000
aVGetLocalTime
p1001
aasg17
I220
ssS'0x4059dc'
p1002
(dp1003
g10
Vcdecl
p1004
sg12
I0
sg13
(lp1005
sg15
(lp1006
sg17
I14
ssS'0x403e63'
p1007
(dp1008
g10
Vcdecl
p1009
sg12
I4
sg13
(lp1010
(lp1011
S'0x403f14'
p1012
aS'j \\\\ nXP'
p1013
aasg15
(lp1014
(lp1015
S'0x403f25'
p1016
aVGetModuleHandleA
p1017
aa(lp1018
S'0x403ed7'
p1019
aVGetCommandLineA
p1020
aa(lp1021
S'0x403e89'
p1022
aVGetVersion
p1023
aa(lp1024
S'0x403f02'
p1025
aVGetStartupInfoA
p1026
aasg17
I235
ssS'0x4084bb'
p1027
(dp1028
g10
Vcdecl
p1029
sg12
I0
sg13
(lp1030
sg15
(lp1031
sg17
I43
ssS'0x40523f'
p1032
(dp1033
g10
Vcdecl
p1034
sg12
I0
sg13
(lp1035
sg15
(lp1036
sg17
I67
ssS'0x4073a0'
p1037
(dp1038
g10
Vcdecl
p1039
sg12
I0
sg13
(lp1040
sg15
(lp1041
sg17
I821
ssS'0x4049f9'
p1042
(dp1043
g10
Vcdecl
p1044
sg12
I3
sg13
(lp1045
(lp1046
S'0x404b9b'
p1047
ag644
aa(lp1048
S'0x404bc9'
p1049
ag644
aa(lp1050
S'0x404bf4'
p1051
ag644
aa(lp1052
S'0x404c47'
p1053
aS'_^][Y'
p1054
aa(lp1055
S'0x404b1d'
p1056
ag1054
aa(lp1057
S'0x404a39'
p1058
ag1054
aa(lp1059
S'0x404b25'
p1060
ag1054
aa(lp1061
S'0x404b3f'
p1062
ag1054
aa(lp1063
S'0x404b67'
p1064
ag1054
aasg15
(lp1065
(lp1066
S'0x404a31'
p1067
aVGetTimeZoneInformation
p1068
aa(lp1069
S'0x404b00'
p1070
aVWideCharToMultiByte
p1071
aa(lp1072
S'0x404ac6'
p1073
aVWideCharToMultiByte
p1074
aasg17
I606
ssS'0x4078c8'
p1075
(dp1076
g10
Vcdecl
p1077
sg12
I0
sg13
(lp1078
(lp1079
S'0x4078d2'
p1080
ag606
aasg15
(lp1081
sg17
I59
ssS'0x404927'
p1082
(dp1083
g10
Vcdecl
p1084
sg12
I0
sg13
(lp1085
sg15
(lp1086
sg17
I14
ssS'0x407cda'
p1087
(dp1088
g10
Vcdecl
p1089
sg12
I0
sg13
(lp1090
(lp1091
S'0x407d04'
p1092
aS'SUVW'
p1093
aasg15
(lp1094
sg17
I86
ssS'0x404f43'
p1095
(dp1096
g10
Vcdecl
p1097
sg12
I0
sg13
(lp1098
sg15
(lp1099
sg17
I249
ssS'0x403140'
p1100
(dp1101
g10
Vcdecl
p1102
sg12
I0
sg13
(lp1103
sg15
(lp1104
sg17
I60
ssS'0x40684c'
p1105
(dp1106
g10
Vcdecl
p1107
sg12
I4
sg13
(lp1108
sg15
(lp1109
(lp1110
S'0x406971'
p1111
aVGetLastError
p1112
aa(lp1113
S'0x40699e'
p1114
aVGetLastError
p1115
aa(lp1116
S'0x406989'
p1117
aVWriteFile
p1118
aa(lp1119
S'0x406924'
p1120
aVWriteFile
p1121
aasg17
I429
ssS'0x406310'
p1122
(dp1123
g10
Vcdecl
p1124
sg12
I4
sg13
(lp1125
sg15
(lp1126
(lp1127
S'0x40636c'
p1128
aVHeapAlloc
p1129
aa(lp1130
S'0x406338'
p1131
aVHeapReAlloc
p1132
aa(lp1133
S'0x406386'
p1134
aVVirtualAlloc
p1135
aa(lp1136
S'0x40639d'
p1137
aVHeapFree
p1138
aasg17
I177
ssS'0x4072f7'
p1139
(dp1140
g10
Vcdecl
p1141
sg12
I0
sg13
(lp1142
sg15
(lp1143
sg17
I28
ssS'0x408448'
p1144
(dp1145
g10
Vcdecl
p1146
sg12
I0
sg13
(lp1147
(lp1148
S'0x40845a'
p1149
aS'3 \\\\ nD$ \\\\ bS'
p1150
aasg15
(lp1151
sg17
I115
ssS'0x401054'
p1152
(dp1153
g10
Vcdecl
p1154
sg12
I0
sg13
(lp1155
sg15
(lp1156
sg17
I22
ssS'0x406c00'
p1157
(dp1158
g10
Vcdecl
p1159
sg12
I0
sg13
(lp1160
(lp1161
S'0x406c52'
p1162
aS'+D$ \\\\ b \\\\ eT$ \\\\ f'
p1163
aa(lp1164
S'0x406c58'
p1165
ag1163
aasg15
(lp1166
sg17
I117
ssS'0x4049e4'
p1167
(dp1168
g10
Vcdecl
p1169
sg12
I0
sg13
(lp1170
(lp1171
S'0x4049ed'
p1172
aS'QSUVW3'
p1173
aasg15
(lp1174
sg17
I21
ssS'0x403f7e'
p1175
(dp1176
g10
Vcdecl
p1177
sg12
I1
sg13
(lp1178
sg15
(lp1179
(lp1180
S'0x403f9b'
p1181
aVExitProcess
p1182
aasg17
I35
ssS'0x407903'
p1183
(dp1184
g10
Vcdecl
p1185
sg12
I0
sg13
(lp1186
sg15
(lp1187
sg17
I92
ssS'0x403fb4'
p1188
(dp1189
g10
Vcdecl
p1190
sg12
I0
sg13
(lp1191
sg15
(lp1192
sg17
I44
ssS'0x408500'
p1193
(dp1194
g10
Vcdecl
p1195
sg12
I0
sg13
(lp1196
(lp1197
S'0x408568'
p1198
aS'^_[3'
p1199
aa(lp1200
S'0x408581'
p1201
ag1199
aa(lp1202
S'0x408589'
p1203
ag1199
aa(lp1204
S'0x408594'
p1205
ag1199
aa(lp1206
S'0x40859c'
p1207
ag1199
aasg15
(lp1208
sg17
I188
ssS'0x4079d5'
p1209
(dp1210
g10
Vcdecl
p1211
sg12
I0
sg13
(lp1212
sg15
(lp1213
sg17
I9
ssS'0x4059d2'
p1214
(dp1215
g10
Vcdecl
p1216
sg12
I0
sg13
(lp1217
sg15
(lp1218
sg17
I10
ssS'0x407149'
p1219
(dp1220
g10
Vcdecl
p1221
sg12
I0
sg13
(lp1222
sg15
(lp1223
sg17
I41
ssS'0x401268'
p1224
(dp1225
g10
Vcdecl
p1226
sg12
I0
sg13
(lp1227
sg15
(lp1228
sg17
I17
ssS'0x4058fc'
p1229
(dp1230
g10
Vcdecl
p1231
sg12
I0
sg13
(lp1232
(lp1233
S'0x405907'
p1234
aS']_^['
p1235
aa(lp1236
S'0x405907'
p1237
ag1235
aasg15
(lp1238
(lp1239
S'0x40590f'
p1240
aVRtlUnwind
p1241
aasg17
I32
ssS'0x4069f9'
p1242
(dp1243
g10
Vcdecl
p1244
sg12
I0
sg13
(lp1245
sg15
(lp1246
sg17
I68
ssS'0x404917'
p1247
(dp1248
g10
Vcdecl
p1249
sg12
I0
sg13
(lp1250
sg15
(lp1251
sg17
I16
ssS'0x4081e3'
p1252
(dp1253
g10
Vcdecl
p1254
sg12
I0
sg13
(lp1255
sg15
(lp1256
sg17
I103
ssS'0x40490a'
p1257
(dp1258
g10
Vcdecl
p1259
sg12
I0
sg13
(lp1260
sg15
(lp1261
sg17
I13
ssS'0x402315'
p1262
(dp1263
g10
Vcdecl
p1264
sg12
I14
sg13
(lp1265
(lp1266
S'0x402340'
p1267
aS'%d%d'
p1268
aa(lp1269
S'0x4023f7'
p1270
aS'%d%d%d%d%d'
p1271
aasg15
(lp1272
(lp1273
S'0x402449'
p1274
aVGetTickCount
p1275
aa(lp1276
S'0x402421'
p1277
aVGetTickCount
p1278
aa(lp1279
S'0x402354'
p1280
aVGetTickCount
p1281
aa(lp1282
S'0x402443'
p1283
aVSleep
p1284
aa(lp1285
S'0x402435'
p1286
aVGetTickCount
p1287
aa(lp1288
S'0x40242f'
p1289
aVSleep
p1290
aa(lp1291
S'0x402330'
p1292
aVGetTickCount
p1293
aa(lp1294
S'0x402339'
p1295
aVGetTickCount
p1296
aa(lp1297
S'0x4023f0'
p1298
aVGetTickCount
p1299
aa(lp1300
S'0x40245c'
p1301
aVSleep
p1302
aa(lp1303
S'0x4023e6'
p1304
aVGetTickCount
p1305
aa(lp1306
S'0x4023d2'
p1307
aVGetTickCount
p1308
aa(lp1309
S'0x4023cb'
p1310
aVGetTickCount
p1311
aa(lp1312
S'0x4023dc'
p1313
aVGetTickCount
p1314
aa(lp1315
S'0x402325'
p1316
ag554
aa(lp1317
S'0x4024f8'
p1318
ag199
aasg17
I498
ssS'0x4077f3'
p1319
(dp1320
g10
Vcdecl
p1321
sg12
I1
sg13
(lp1322
sg15
(lp1323
(lp1324
S'0x407838'
p1325
aVHeapAlloc
p1326
aasg17
I125
ssS'0x4070cc'
p1327
(dp1328
g10
Vcdecl
p1329
sg12
I2
sg13
(lp1330
sg15
(lp1331
(lp1332
S'0x4070fb'
p1333
aVGetACP
p1334
aa(lp1335
S'0x4070e6'
p1336
aVGetOEMCP
p1337
aasg17
I74
ssS'0x406e74'
p1338
(dp1339
g10
Vcdecl
p1340
sg12
I0
sg13
(lp1341
(lp1342
S'0x406e92'
p1343
ag133
aasg15
(lp1344
sg17
I125
ssS'0x403fe0'
p1345
(dp1346
g10
Vcdecl
p1347
sg12
I1
sg13
(lp1348
sg15
(lp1349
(lp1350
S'0x40400e'
p1351
aVHeapAlloc
p1352
aasg17
I54
ssS'0x406c75'
p1353
(dp1354
g10
Vcdecl
p1355
sg12
I6
sg13
(lp1356
sg15
(lp1357
(lp1358
S'0x406da2'
p1359
aVGetStringTypeW
p1360
aa(lp1361
S'0x406d3a'
p1362
aVMultiByteToWideChar
p1363
aa(lp1364
S'0x406d02'
p1365
aVGetStringTypeA
p1366
aa(lp1367
S'0x406cce'
p1368
aVGetStringTypeA
p1369
aa(lp1370
S'0x406d90'
p1371
aVMultiByteToWideChar
p1372
aa(lp1373
S'0x406cb4'
p1374
aVGetStringTypeW
p1375
aasg17
I329
ssS'0x40818b'
p1376
(dp1377
g10
Vcdecl
p1378
sg12
I0
sg13
(lp1379
sg15
(lp1380
sg17
I88
ssS'0x407a1d'
p1381
(dp1382
g10
Vcdecl
p1383
sg12
I2
sg13
(lp1384
(lp1385
S'0x407a7c'
p1386
aS'WWWWj'
p1387
aasg15
(lp1388
(lp1389
S'0x407a62'
p1390
aVWideCharToMultiByte
p1391
aa(lp1392
S'0x407a40'
p1393
aVWideCharToMultiByte
p1394
aasg17
I110
ssS'0x406dbe'
p1395
(dp1396
g10
Vcdecl
p1397
sg12
I1
sg13
(lp1398
sg15
(lp1399
(lp1400
S'0x406de5'
p1401
aVHeapFree
p1402
aasg17
I47
ssS'0x402670'
p1403
(dp1404
g10
Vcdecl
p1405
sg12
I8
sg13
(lp1406
(lp1407
S'0x40267a'
p1408
aS'"C: \\\\ windows \\\\ rundll23.exe"'
p1409
aa(lp1410
S'0x4026ba'
p1411
aS'C: \\\\ Windows \\\\ rundll23.exe'
p1412
aa(lp1413
S'0x4026d4'
p1414
aS'C: \\\\ Windows \\\\ rundll23.exe'
p1415
aa(lp1416
S'0x4026f4'
p1417
aS'SOFTWARE \\\\ Microsoft \\\\ Windows \\\\ CurrentVersion \\\\ Run'
p1418
aa(lp1419
S'0x402720'
p1420
aS'Windows Network Services'
p1421
aa(lp1422
S'0x4029cf'
p1423
aS'%c%d'
p1424
aa(lp1425
S'0x4029ff'
p1426
aS'irc.rizon.net'
p1427
aa(lp1428
S'0x402a42'
p1429
aS'/join #scbot'
p1430
aasg15
(lp1431
(lp1432
S'0x4026b2'
p1433
aVGetModuleFileNameA
p1434
aa(lp1435
S'0x4026fe'
p1436
aVRegOpenKeyExA
p1437
aa(lp1438
S'0x402a22'
p1439
aVSleep
p1440
aa(lp1441
S'0x402686'
p1442
aVlstrcpyA
p1443
aa(lp1444
S'0x4026e0'
p1445
aVCopyFileA
p1446
aa(lp1447
S'0x402a77'
p1448
aVSleep
p1449
aa(lp1450
S'0x40272c'
p1451
aVRegSetValueExA
p1452
aa(lp1453
S'0x4029b5'
p1454
aVGetTickCount
p1455
aa(lp1456
S'0x402744'
p1457
aVWSAStartup
p1458
aasg17
I1050
ssS'0x4063c1'
p1459
(dp1460
g10
Vcdecl
p1461
sg12
I1
sg13
(lp1462
sg15
(lp1463
(lp1464
S'0x406412'
p1465
aVVirtualAlloc
p1466
aasg17
I251
ssS'0x406a63'
p1467
(dp1468
g10
Vcdecl
p1469
sg12
I0
sg13
(lp1470
sg15
(lp1471
sg17
I165
ssS'0x401ad5'
p1472
(dp1473
g10
Vcdecl
p1474
sg12
I0
sg13
(lp1475
(lp1476
S'0x401e71'
p1477
aS'PRIVMSG '
p1478
aa(lp1479
S'0x401ea3'
p1480
aS'ACTION '
p1481
aa(lp1482
S'0x401f64'
p1483
aS'MODE '
p1484
aa(lp1485
S'0x401fa1'
p1486
aS'MODE |GLOBAL'
p1487
aa(lp1488
S'0x402101'
p1489
aS'PING '
p1490
aasg15
(lp1491
(lp1492
S'0x40217f'
p1493
ag199
aasg17
I1720
ssS'0x4059ec'
p1494
(dp1495
g10
Vcdecl
p1496
sg12
I0
sg13
(lp1497
sg15
(lp1498
sg17
I8
ssS'0x403bd7'
p1499
(dp1500
g10
Vcdecl
p1501
sg12
I0
sg13
(lp1502
sg15
(lp1503
sg17
I45
ssS'0x40399b'
p1504
(dp1505
g10
Vcdecl
p1506
sg12
I0
sg13
(lp1507
(lp1508
S'0x403a1d'
p1509
ag861
aa(lp1510
S'0x4039e6'
p1511
ag861
aasg15
(lp1512
sg17
I352
ssS'0x4010a5'
p1513
(dp1514
g10
Vcdecl
p1515
sg12
I0
sg13
(lp1516
(lp1517
S'0x4010de'
p1518
aS'/me '
p1519
aa(lp1520
S'0x401104'
p1521
aS'PRIVMSG %s :'
p1522
aa(lp1523
S'0x4011d5'
p1524
aS'Error: Disconnected.'
p1525
aa(lp1526
S'0x401202'
p1527
aS'Error: Not in channel.'
p1528
aa(lp1529
S'0x401229'
p1530
aS'PRIVMSG %s :%s \\\\ r \\\\ n'
p1531
aasg15
(lp1532
sg17
I451
ssS'0x406ef1'
p1533
(dp1534
g10
Vcdecl
p1535
sg12
I0
sg13
(lp1536
sg15
(lp1537
sg17
I17
ssS'0x405c58'
p1538
(dp1539
g10
Vcdecl
p1540
sg12
I0
sg13
(lp1541
sg15
(lp1542
sg17
I27
ssS'0x4084f0'
p1543
(dp1544
g10
Vcdecl
p1545
sg12
I0
sg13
(lp1546
sg15
(lp1547
sg17
I5
ssS'0x403490'
p1548
(dp1549
g10
Vcdecl
p1550
sg12
I0
sg13
(lp1551
sg15
(lp1552
sg17
I47
ssS'0x403c26'
p1553
(dp1554
g10
Vcdecl
p1555
sg12
I3
sg13
(lp1556
sg15
(lp1557
(lp1558
S'0x403c36'
p1559
aVGetCurrentProcess
p1560
aa(lp1561
S'0x403c3d'
p1562
aVTerminateProcess
p1563
aa(lp1564
S'0x403cb7'
p1565
aVExitProcess
p1566
aasg17
I153
ssS'0x4034f8'
p1567
(dp1568
g10
Vcdecl
p1569
sg12
I0
sg13
(lp1570
(lp1571
S'0x40357a'
p1572
aS'_^]['
p1573
aasg15
(lp1574
sg17
I139
ssS'0x4048a1'
p1575
(dp1576
g10
Vcdecl
p1577
sg12
I0
sg13
(lp1578
sg15
(lp1579
sg17
I49
ssS'0x406b08'
p1580
(dp1581
g10
Vcdecl
p1582
sg12
I0
sg13
(lp1583
sg15
(lp1584
sg17
I3520
sssS'node_dict_factory'
p1585
c__builtin__
dict
p1586
sS'edge_attr_dict_factory'
p1587
g1586
sS'succ'
p1588
(dp1589
g8
(dp1590
sg18
(dp1591
sg23
(dp1592
sg28
(dp1593
sg33
(dp1594
S'0x40523f'
p1595
(dp1596
S'pos'
p1597
S'0x405105'
p1598
sssg41
(dp1599
S'0x407caf'
p1600
(dp1601
g1597
S'0x407e05'
p1602
ssS'0x403490'
p1603
(dp1604
g1597
S'0x407f9a'
p1605
sssg73
(dp1606
sg78
(dp1607
sg83
(dp1608
sg91
(dp1609
sg96
(dp1610
S'0x403fa2'
p1611
(dp1612
g1597
S'0x4057ae'
p1613
ssS'0x403f59'
p1614
(dp1615
g1597
S'0x40572c'
p1616
sssg116
(dp1617
S'0x407a8b'
p1618
(dp1619
g1597
S'0x407258'
p1620
ssS'0x406c75'
p1621
(dp1622
g1597
S'0x40720c'
p1623
sssg127
(dp1624
S'0x408448'
p1625
(dp1626
g1597
S'0x408018'
p1627
ssS'0x40818b'
p1628
(dp1629
g1597
S'0x4080b6'
p1630
ssS'0x406dbe'
p1631
(dp1632
g1597
S'0x4080d2'
p1633
ssS'0x4081e3'
p1634
(dp1635
g1597
S'0x408043'
p1636
ssS'0x408328'
p1637
(dp1638
g1597
S'0x4080f1'
p1639
ssS'0x4033c0'
p1640
(dp1641
g1597
S'0x408141'
p1642
ssS'0x403fa2'
p1643
(dp1644
g1597
S'0x408095'
p1645
ssS'0x4031c0'
p1646
(dp1647
g1597
S'0x40815a'
p1648
ssS'0x407a1d'
p1649
(dp1650
g1597
S'0x40805f'
p1651
sssg138
(dp1652
sg146
(dp1653
S'0x4072f7'
p1654
(dp1655
g1597
S'0x40528b'
p1656
ssS'0x406ef1'
p1657
(dp1658
g1597
S'0x4052ad'
p1659
sssg151
(dp1660
sg156
(dp1661
sg161
(dp1662
sg169
(dp1663
sg174
(dp1664
S'0x40343b'
p1665
(dp1666
g1597
S'0x40130c'
p1667
ssS'0x4032b0'
p1668
(dp1669
g1597
S'0x401478'
p1670
ssS'0x401000'
p1671
(dp1672
g1597
S'0x4014d5'
p1673
ssS'0x40106a'
p1674
(dp1675
g1597
S'0x4015b5'
p1676
ssS'0x4033c0'
p1677
(dp1678
g1597
S'0x40134c'
p1679
ssS'0x4085d0'
p1680
(dp1681
g1597
S'0x4015f8'
p1682
ssS'0x4033ae'
p1683
(dp1684
g1597
S'0x401358'
p1685
sssg202
(dp1686
sg207
(dp1687
sg212
(dp1688
S'0x40773c'
p1689
(dp1690
g1597
S'0x4082c6'
p1691
ssS'0x4076d5'
p1692
(dp1693
g1597
S'0x4082d8'
p1694
ssS'0x4077b6'
p1695
(dp1696
g1597
S'0x4082a8'
p1697
sssg226
(dp1698
S'0x4077b6'
p1699
(dp1700
g1597
S'0x407d55'
p1701
sssg237
(dp1702
S'0x405acc'
p1703
(dp1704
g1597
S'0x403f62'
p1705
ssS'0x405b05'
p1706
(dp1707
g1597
S'0x403f6b'
p1708
sssg242
(dp1709
S'0x402511'
p1710
(dp1711
g1597
S'0x40250a'
p1712
sssg247
(dp1713
S'0x4010a5'
p1714
(dp1715
g1597
S'0x402639'
p1716
ssS'0x40343b'
p1717
(dp1718
g1597
S'0x402625'
p1719
ssS'0x402315'
p1720
(dp1721
g1597
S'0x402608'
p1722
sssg258
(dp1723
S'0x406dbe'
p1724
(dp1725
g1597
S'0x40569f'
p1726
ssS'0x403fa2'
p1727
(dp1728
g1597
S'0x40567c'
p1729
ssS'0x403590'
p1730
(dp1731
g1597
S'0x4056f6'
p1732
sssg292
(dp1733
S'0x40593e'
p1734
(dp1735
g1597
S'0x405ac0'
p1736
sssg297
(dp1737
sg305
(dp1738
sg313
(dp1739
sg318
(dp1740
sg323
(dp1741
S'0x404016'
p1742
(dp1743
g1597
S'0x404889'
p1744
sssg328
(dp1745
S'0x407a8b'
p1746
(dp1747
g1597
S'0x408720'
p1748
ssS'0x404935'
p1749
(dp1750
g1597
S'0x4086c3'
p1751
sssg333
(dp1752
S'0x4059d2'
p1753
(dp1754
g1597
S'0x40598d'
p1755
sssg338
(dp1756
sg343
(dp1757
sg348
(dp1758
sg353
(dp1759
S'0x403c26'
p1760
(dp1761
g1597
S'0x403c0c'
p1762
sssg358
(dp1763
S'0x40343b'
p1764
(dp1765
g1597
S'0x402b5d'
p1766
ssS'0x4032b0'
p1767
(dp1768
g1597
S'0x402e03'
p1769
ssS'0x401000'
p1770
(dp1771
g1597
S'0x402fe4'
p1772
ssS'0x4031d0'
p1773
(dp1774
g1597
S'0x402ed0'
p1775
ssS'0x403490'
p1776
(dp1777
g1597
S'0x402aa9'
p1778
ssS'0x4010a5'
p1779
(dp1780
g1597
S'0x402b71'
p1781
ssS'0x403c04'
p1782
(dp1783
g1597
S'0x403134'
p1784
ssS'0x4033c0'
p1785
(dp1786
g1597
S'0x402e56'
p1787
ssS'0x4085d0'
p1788
(dp1789
g1597
S'0x403117'
p1790
ssS'0x403d40'
p1791
(dp1792
g1597
S'0x402e93'
p1793
ssS'0x403ce0'
p1794
(dp1795
g1597
S'0x402f2f'
p1796
sssg510
(dp1797
sg515
(dp1798
S'0x40343b'
p1799
(dp1800
g1597
S'0x4018df'
p1801
ssS'0x4032b0'
p1802
(dp1803
g1597
S'0x401806'
p1804
ssS'0x40106a'
p1805
(dp1806
g1597
S'0x4016ff'
p1807
ssS'0x4033c0'
p1808
(dp1809
g1597
S'0x4017ec'
p1810
ssS'0x40218d'
p1811
(dp1812
g1597
S'0x401856'
p1813
ssS'0x4033ae'
p1814
(dp1815
g1597
S'0x4017cb'
p1816
sssg559
(dp1817
S'0x40106a'
p1818
(dp1819
g1597
S'0x401a22'
p1820
ssS'0x403490'
p1821
(dp1822
g1597
S'0x401997'
p1823
ssS'0x401ad5'
p1824
(dp1825
g1597
S'0x401aa3'
p1826
sssg570
(dp1827
S'0x405c73'
p1828
(dp1829
g1597
S'0x4058dd'
p1830
sssg581
(dp1831
S'0x4073a0'
p1832
(dp1833
g1597
S'0x405fca'
p1834
sssg595
(dp1835
sg600
(dp1836
S'0x407968'
p1837
(dp1838
g1597
S'0x407961'
p1839
sssg608
(dp1840
S'0x406dbe'
p1841
(dp1842
g1597
S'0x408310'
p1843
sssg613
(dp1844
sg618
(dp1845
sg623
(dp1846
S'0x4069f9'
p1847
(dp1848
g1597
S'0x404082'
p1849
ssS'0x40684c'
p1850
(dp1851
g1597
S'0x4040ab'
p1852
ssS'0x406a3d'
p1853
(dp1854
g1597
S'0x404077'
p1855
ssS'0x4067b2'
p1856
(dp1857
g1597
S'0x4040e3'
p1858
sssg628
(dp1859
sg633
(dp1860
sg638
(dp1861
S'0x4034f8'
p1862
(dp1863
g1597
S'0x403587'
p1864
sssg646
(dp1865
S'0x403c26'
p1866
(dp1867
g1597
S'0x403c1d'
p1868
sssg651
(dp1869
S'0x404e03'
p1870
(dp1871
g1597
S'0x404d3f'
p1872
sssg659
(dp1873
S'0x40486c'
p1874
(dp1875
g1597
S'0x4048f2'
p1876
sssg664
(dp1877
sg669
(dp1878
S'0x403fb4'
p1879
(dp1880
g1597
S'0x403fac'
p1881
sssg674
(dp1882
S'0x403140'
p1883
(dp1884
g1597
S'0x402519'
p1885
sssg679
(dp1886
S'0x402aa1'
p1887
(dp1888
g1597
S'0x402585'
p1889
ssS'0x40343b'
p1890
(dp1891
g1597
S'0x4025b4'
p1892
ssS'0x4033c0'
p1893
(dp1894
g1597
S'0x4025c3'
p1895
ssS'0x40128a'
p1896
(dp1897
g1597
S'0x4025d6'
p1898
sssg690
(dp1899
S'0x407caf'
p1900
(dp1901
g1597
S'0x407b0c'
p1902
ssS'0x403490'
p1903
(dp1904
g1597
S'0x407c3c'
p1905
sssg725
(dp1906
sg730
(dp1907
sg735
(dp1908
S'0x405b05'
p1909
(dp1910
g1597
S'0x405afe'
p1911
sssg740
(dp1912
S'0x405b05'
p1913
(dp1914
g1597
S'0x403f6b'
p1915
ssS'0x405acc'
p1916
(dp1917
g1597
S'0x403f62'
p1918
ssS'0x403c15'
p1919
(dp1920
g1597
S'0x403f54'
p1921
sssg745
(dp1922
sg767
(dp1923
S'0x403fb4'
p1924
(dp1925
g1597
S'0x4033b4'
p1926
sssg772
(dp1927
S'0x407116'
p1928
(dp1929
g1597
S'0x407085'
p1930
ssS'0x4070cc'
p1931
(dp1932
g1597
S'0x406f3f'
p1933
ssS'0x407149'
p1934
(dp1935
g1597
S'0x4070b6'
p1936
ssS'0x407172'
p1937
(dp1938
g1597
S'0x4070bb'
p1939
sssg786
(dp1940
sg791
(dp1941
S'0x4031d0'
p1942
(dp1943
g1597
S'0x405c0e'
p1944
ssS'0x4033c0'
p1945
(dp1946
g1597
S'0x405b9d'
p1947
ssS'0x4031c0'
p1948
(dp1949
g1597
S'0x405b88'
p1950
ssS'0x407313'
p1951
(dp1952
g1597
S'0x405c24'
p1953
ssS'0x4032b0'
p1954
(dp1955
g1597
S'0x405bca'
p1956
sssg811
(dp1957
sg816
(dp1958
S'0x4076d5'
p1959
(dp1960
g1597
S'0x40681d'
p1961
ssS'0x4077b6'
p1962
(dp1963
g1597
S'0x4067df'
p1964
sssg827
(dp1965
S'0x4072f7'
p1966
(dp1967
g1597
S'0x4052e7'
p1968
ssS'0x406dbe'
p1969
(dp1970
g1597
S'0x405377'
p1971
ssS'0x403f59'
p1972
(dp1973
g1597
S'0x405328'
p1974
ssS'0x4033c0'
p1975
(dp1976
g1597
S'0x405300'
p1977
ssS'0x403fa2'
p1978
(dp1979
g1597
S'0x405349'
p1980
ssS'0x4031c0'
p1981
(dp1982
g1597
S'0x405360'
p1983
sssg832
(dp1984
S'0x407d87'
p1985
(dp1986
g1597
S'0x407a05'
p1987
sssg837
(dp1988
S'0x4072f7'
p1989
(dp1990
g1597
S'0x4053a5'
p1991
ssS'0x403fa2'
p1992
(dp1993
g1597
S'0x4053e9'
p1994
ssS'0x403f59'
p1995
(dp1996
g1597
S'0x4053f9'
p1997
ssS'0x40542c'
p1998
(dp1999
g1597
S'0x4053da'
p2000
sssg845
(dp2001
S'0x40593e'
p2002
(dp2003
g1597
S'0x405a5b'
p2004
ssS'0x4059d2'
p2005
(dp2006
g1597
S'0x405a6c'
p2007
ssS'0x4058fc'
p2008
(dp2009
g1597
S'0x405a4e'
p2010
sssg855
(dp2011
S'0x404c57'
p2012
(dp2013
g1597
S'0x4050e1'
p2014
ssS'0x4049e4'
p2015
(dp2016
g1597
S'0x40507b'
p2017
sssg863
(dp2018
S'0x40867d'
p2019
(dp2020
g1597
S'0x408657'
p2021
sssg868
(dp2022
S'0x40412b'
p2023
(dp2024
g1597
S'0x403464'
p2025
ssS'0x404016'
p2026
(dp2027
g1597
S'0x403481'
p2028
sssg873
(dp2029
sg902
(dp2030
S'0x4032b0'
p2031
(dp2032
g1597
S'0x402249'
p2033
ssS'0x403490'
p2034
(dp2035
g1597
S'0x402238'
p2036
sssg918
(dp2037
S'0x4078c8'
p2038
(dp2039
g1597
S'0x407995'
p2040
sssg923
(dp2041
S'0x406c75'
p2042
(dp2043
g1597
S'0x404993'
p2044
sssg928
(dp2045
S'0x406310'
p2046
(dp2047
g1597
S'0x4060d3'
p2048
ssS'0x4063c1'
p2049
(dp2050
g1597
S'0x4060e2'
p2051
sssg936
(dp2052
S'0x404016'
p2053
(dp2054
g1597
S'0x404889'
p2055
sssg941
(dp2056
sg946
(dp2057
sg951
(dp2058
S'0x405cb1'
p2059
(dp2060
g1597
S'0x408365'
p2061
ssS'0x406dbe'
p2062
(dp2063
g1597
S'0x40834c'
p2064
ssS'0x403590'
p2065
(dp2066
g1597
S'0x4083aa'
p2067
ssS'0x405cdc'
p2068
(dp2069
g1597
S'0x4083b1'
p2070
ssS'0x406007'
p2071
(dp2072
g1597
S'0x408391'
p2073
ssS'0x403fa2'
p2074
(dp2075
g1597
S'0x408338'
p2076
ssS'0x405c58'
p2077
(dp2078
g1597
S'0x40842e'
p2079
ssS'0x4064bc'
p2080
(dp2081
g1597
S'0x408380'
p2082
sssg967
(dp2083
sg975
(dp2084
S'0x406b1c'
p2085
(dp2086
g1597
S'0x4043ff'
p2087
ssS'0x40486c'
p2088
(dp2089
g1597
S'0x404301'
p2090
ssS'0x404927'
p2091
(dp2092
g1597
S'0x4043f2'
p2093
ssS'0x406c00'
p2094
(dp2095
g1597
S'0x4046dd'
p2096
ssS'0x40490a'
p2097
(dp2098
g1597
S'0x40442d'
p2099
ssS'0x4033c0'
p2100
(dp2101
g1597
S'0x40452b'
p2102
ssS'0x4048d2'
p2103
(dp2104
g1597
S'0x40479b'
p2105
ssS'0x404917'
p2106
(dp2107
g1597
S'0x404625'
p2108
ssS'0x4048a1'
p2109
(dp2110
g1597
S'0x404785'
p2111
ssS'0x406b90'
p2112
(dp2113
g1597
S'0x4046ef'
p2114
sssg980
(dp2115
S'0x403973'
p2116
(dp2117
g1597
S'0x40395d'
p2118
sssg988
(dp2119
S'0x40503c'
p2120
(dp2121
g1597
S'0x403bc4'
p2122
sssg1002
(dp2123
sg1007
(dp2124
S'0x403bd7'
p2125
(dp2126
g1597
S'0x403ef6'
p2127
ssS'0x405712'
p2128
(dp2129
g1597
S'0x403ed2'
p2130
ssS'0x4050fe'
p2131
(dp2132
g1597
S'0x403f46'
p2133
ssS'0x4058bd'
p2134
(dp2135
g1597
S'0x403ebd'
p2136
ssS'0x403f7e'
p2137
(dp2138
g1597
S'0x403ec9'
p2139
ssS'0x402670'
p2140
(dp2141
g1597
S'0x403f2c'
p2142
ssS'0x403c04'
p2143
(dp2144
g1597
S'0x403f35'
p2145
ssS'0x405282'
p2146
(dp2147
g1597
S'0x403f08'
p2148
ssS'0x4052da'
p2149
(dp2150
g1597
S'0x403ef1'
p2151
ssS'0x4055e0'
p2152
(dp2153
g1597
S'0x403ee2'
p2154
ssS'0x405393'
p2155
(dp2156
g1597
S'0x403eec'
p2157
sssg1027
(dp2158
S'0x403fa2'
p2159
(dp2160
g1597
S'0x4084cc'
p2161
ssS'0x4033c0'
p2162
(dp2163
g1597
S'0x4084c5'
p2164
ssS'0x4031c0'
p2165
(dp2166
g1597
S'0x4084d9'
p2167
sssg1032
(dp2168
sg1037
(dp2169
sg1042
(dp2170
S'0x406df0'
p2171
(dp2172
g1597
S'0x404b36'
p2173
ssS'0x4032b0'
p2174
(dp2175
g1597
S'0x404c36'
p2176
ssS'0x406dbe'
p2177
(dp2178
g1597
S'0x404b4b'
p2179
ssS'0x406e74'
p2180
(dp2181
g1597
S'0x404a1c'
p2182
ssS'0x4033c0'
p2183
(dp2184
g1597
S'0x404b51'
p2185
ssS'0x4034f8'
p2186
(dp2187
g1597
S'0x404b9b'
p2188
ssS'0x403fa2'
p2189
(dp2190
g1597
S'0x404b58'
p2191
ssS'0x4031c0'
p2192
(dp2193
g1597
S'0x404b6f'
p2194
sssg1075
(dp2195
S'0x407968'
p2196
(dp2197
g1597
S'0x4078d2'
p2198
ssS'0x407903'
p2199
(dp2200
g1597
S'0x4078db'
p2201
ssS'0x407d30'
p2202
(dp2203
g1597
S'0x4078f3'
p2204
sssg1082
(dp2205
sg1087
(dp2206
S'0x4082fd'
p2207
(dp2208
g1597
S'0x407cfc'
p2209
ssS'0x406dbe'
p2210
(dp2211
g1597
S'0x407d1d'
p2212
ssS'0x40824a'
p2213
(dp2214
g1597
S'0x407d04'
p2215
ssS'0x407903'
p2216
(dp2217
g1597
S'0x407cf4'
p2218
sssg1095
(dp2219
sg1100
(dp2220
sg1105
(dp2221
S'0x4067b2'
p2222
(dp2223
g1597
S'0x4068a5'
p2224
ssS'0x4076d5'
p2225
(dp2226
g1597
S'0x4069ac'
p2227
sssg1122
(dp2228
sg1139
(dp2229
S'0x406f33'
p2230
(dp2231
g1597
S'0x407302'
p2232
sssg1144
(dp2233
S'0x408500'
p2234
(dp2235
g1597
S'0x40845a'
p2236
sssg1152
(dp2237
sg1157
(dp2238
sg1167
(dp2239
S'0x4049f9'
p2240
(dp2241
g1597
S'0x4049ed'
p2242
sssg1175
(dp2243
S'0x405acc'
p2244
(dp2245
g1597
S'0x403f87'
p2246
ssS'0x405b05'
p2247
(dp2248
g1597
S'0x403f90'
p2249
sssg1183
(dp2250
S'0x40684c'
p2251
(dp2252
g1597
S'0x40792f'
p2253
sssg1188
(dp2254
S'0x403fe0'
p2255
(dp2256
g1597
S'0x403fbf'
p2257
ssS'0x405c58'
p2258
(dp2259
g1597
S'0x403fd3'
p2260
sssg1193
(dp2261
sg1209
(dp2262
S'0x403f59'
p2263
(dp2264
g1597
S'0x4079d7'
p2265
sssg1214
(dp2266
sg1219
(dp2267
sg1224
(dp2268
sg1229
(dp2269
sg1242
(dp2270
S'0x403fa2'
p2271
(dp2272
g1597
S'0x406a04'
p2273
sssg1247
(dp2274
sg1252
(dp2275
S'0x403fa2'
p2276
(dp2277
g1597
S'0x40820f'
p2278
ssS'0x4084bb'
p2279
(dp2280
g1597
S'0x408231'
p2281
ssS'0x403f59'
p2282
(dp2283
g1597
S'0x40821f'
p2284
sssg1257
(dp2285
sg1262
(dp2286
S'0x40343b'
p2287
(dp2288
g1597
S'0x402403'
p2289
ssS'0x402230'
p2290
(dp2291
g1597
S'0x402372'
p2292
ssS'0x403590'
p2293
(dp2294
g1597
S'0x402496'
p2295
ssS'0x4033c0'
p2296
(dp2297
g1597
S'0x4024de'
p2298
ssS'0x4031c0'
p2299
(dp2300
g1597
S'0x402470'
p2301
sssg1319
(dp2302
S'0x406007'
p2303
(dp2304
g1597
S'0x407823'
p2305
ssS'0x403ce0'
p2306
(dp2307
g1597
S'0x40785e'
p2308
ssS'0x405c58'
p2309
(dp2310
g1597
S'0x40784e'
p2311
sssg1327
(dp2312
sg1338
(dp2313
S'0x4079de'
p2314
(dp2315
g1597
S'0x406ed2'
p2316
ssS'0x4033c0'
p2317
(dp2318
g1597
S'0x406ebd'
p2319
ssS'0x407a1d'
p2320
(dp2321
g1597
S'0x406e92'
p2322
sssg1345
(dp2323
S'0x406007'
p2324
(dp2325
g1597
S'0x403fee'
p2326
sssg1353
(dp2327
S'0x403ce0'
p2328
(dp2329
g1597
S'0x406d64'
p2330
ssS'0x403490'
p2331
(dp2332
g1597
S'0x406d54'
p2333
sssg1376
(dp2334
S'0x4079de'
p2335
(dp2336
g1597
S'0x4081a3'
p2337
sssg1381
(dp2338
S'0x408004'
p2339
(dp2340
g1597
S'0x407a6d'
p2341
ssS'0x403fa2'
p2342
(dp2343
g1597
S'0x407a49'
p2344
sssg1395
(dp2345
S'0x405cdc'
p2346
(dp2347
g1597
S'0x406dd4'
p2348
ssS'0x405cb1'
p2349
(dp2350
g1597
S'0x406dc8'
p2351
sssg1403
(dp2352
S'0x4034c0'
p2353
(dp2354
g1597
S'0x4026c6'
p2355
ssS'0x40343b'
p2356
(dp2357
g1597
S'0x4029db'
p2358
ssS'0x40399b'
p2359
(dp2360
g1597
S'0x40278b'
p2361
ssS'0x403afb'
p2362
(dp2363
g1597
S'0x40277c'
p2364
ssS'0x40198f'
p2365
(dp2366
g1597
S'0x402a5f'
p2367
ssS'0x4038c5'
p2368
(dp2369
g1597
S'0x4027a0'
p2370
ssS'0x401000'
p2371
(dp2372
g1597
S'0x4027b5'
p2373
ssS'0x401054'
p2374
(dp2375
g1597
S'0x402759'
p2376
ssS'0x4010a5'
p2377
(dp2378
g1597
S'0x402a4c'
p2379
ssS'0x4085d0'
p2380
(dp2381
g1597
S'0x4027e5'
p2382
ssS'0x4016d2'
p2383
(dp2384
g1597
S'0x402a09'
p2385
sssg1459
(dp2386
sg1467
(dp2387
S'0x403f59'
p2388
(dp2389
g1597
S'0x406ab0'
p2390
ssS'0x4077f3'
p2391
(dp2392
g1597
S'0x406a85'
p2393
sssg1472
(dp2394
S'0x4034c0'
p2395
(dp2396
g1597
S'0x401e81'
p2397
ssS'0x4032b0'
p2398
(dp2399
g1597
S'0x401b9c'
p2400
ssS'0x401000'
p2401
(dp2402
g1597
S'0x401bbd'
p2403
ssS'0x4031d0'
p2404
(dp2405
g1597
S'0x40214d'
p2406
ssS'0x403583'
p2407
(dp2408
g1597
S'0x401bcd'
p2409
ssS'0x40106a'
p2410
(dp2411
g1597
S'0x401cb1'
p2412
ssS'0x4033c0'
p2413
(dp2414
g1597
S'0x401e4d'
p2415
ssS'0x4085d0'
p2416
(dp2417
g1597
S'0x402106'
p2418
ssS'0x4033ae'
p2419
(dp2420
g1597
S'0x401b67'
p2421
sssg1494
(dp2422
S'0x40593e'
p2423
(dp2424
g1597
S'0x405a5b'
p2425
ssS'0x4059d2'
p2426
(dp2427
g1597
S'0x405a6c'
p2428
ssS'0x4058fc'
p2429
(dp2430
g1597
S'0x405a4e'
p2431
sssg1499
(dp2432
S'0x403cbf'
p2433
(dp2434
g1597
S'0x403bfb'
p2435
sssg1504
(dp2436
S'0x404f43'
p2437
(dp2438
g1597
S'0x403a00'
p2439
ssS'0x404c57'
p2440
(dp2441
g1597
S'0x4039e6'
p2442
ssS'0x4049e4'
p2443
(dp2444
g1597
S'0x4039ae'
p2445
sssg1513
(dp2446
S'0x40343b'
p2447
(dp2448
g1597
S'0x401110'
p2449
ssS'0x4032b0'
p2450
(dp2451
g1597
S'0x401186'
p2452
ssS'0x4031d0'
p2453
(dp2454
g1597
S'0x40119a'
p2455
ssS'0x40128a'
p2456
(dp2457
g1597
S'0x401135'
p2458
ssS'0x40106a'
p2459
(dp2460
g1597
S'0x4011e2'
p2461
ssS'0x4033c0'
p2462
(dp2463
g1597
S'0x40111f'
p2464
ssS'0x4085d0'
p2465
(dp2466
g1597
S'0x4010e7'
p2467
ssS'0x4033ae'
p2468
(dp2469
g1597
S'0x401151'
p2470
sssg1533
(dp2471
S'0x406f02'
p2472
(dp2473
g1597
S'0x406ef9'
p2474
sssg1538
(dp2475
sg1543
(dp2476
sg1548
(dp2477
sg1553
(dp2478
S'0x403cbf'
p2479
(dp2480
g1597
S'0x403ca1'
p2481
sssg1567
(dp2482
S'0x404935'
p2483
(dp2484
g1597
S'0x40350f'
p2485
sssg1575
(dp2486
S'0x40486c'
p2487
(dp2488
g1597
S'0x4048bb'
p2489
sssg1580
(dp2490
S'0x40795f'
p2491
(dp2492
g1597
S'0x406b08'
p2493
ssS'0x407cda'
p2494
(dp2495
g1597
S'0x407892'
p2496
ssS'0x406dbe'
p2497
(dp2498
g1597
S'0x4078ab'
p2499
ssssS'edge'
p2500
g1589
sS'graph'
p2501
(dp2502
sS'adjlist_dict_factory'
p2503
g1586
sS'adj'
p2504
g1589
sS'pred'
p2505
(dp2506
g8
(dp2507
sg18
(dp2508
sg23
(dp2509
S'0x40412b'
p2510
g2101
sS'0x405b05'
p2511
g1946
sS'0x406e74'
p2512
g2318
sS'0x408004'
p2513
g1641
sS'0x4010a5'
p2514
g2463
sS'0x402315'
p2515
g2297
sS'0x4052da'
p2516
g1976
sS'0x402520'
p2517
g1894
sS'0x4084bb'
p2518
g2163
sS'0x402aa1'
p2519
g1786
sS'0x4016d2'
p2520
g1809
sS'0x40128a'
p2521
g1678
sS'0x4049f9'
p2522
g2184
sS'0x401ad5'
p2523
g2414
ssg28
(dp2524
S'0x402aa1'
p2525
g1795
sS'0x406c75'
p2526
g2329
sS'0x4077f3'
p2527
g2307
ssg33
(dp2528
S'0x403e63'
p2529
g2132
ssg41
(dp2530
S'0x4079de'
p2531
g1986
ssg73
(dp2532
S'0x407a8b'
p2533
g1901
sS'0x407d87'
p2534
g1601
ssg78
(dp2535
S'0x405b05'
p2536
g1949
sS'0x408004'
p2537
g1647
sS'0x402315'
p2538
g2300
sS'0x4052da'
p2539
g1982
sS'0x4084bb'
p2540
g2166
sS'0x4049f9'
p2541
g2193
ssg83
(dp2542
S'0x4067b2'
p2543
g1960
sS'0x40824a'
p2544
g1693
sS'0x40684c'
p2545
g2226
ssg91
(dp2546
S'0x40412b'
p2547
g2113
ssg96
(dp2548
S'0x403e63'
p2549
g2129
ssg116
(dp2550
S'0x406f33'
p2551
g1938
ssg127
(dp2552
S'0x407a1d'
p2553
g2340
ssg138
(dp2554
S'0x406ef1'
p2555
g2473
ssg146
(dp2556
S'0x403e63'
p2557
g2147
ssg151
(dp2558
S'0x402aa1'
p2559
g1792
ssg156
(dp2560
S'0x403bd7'
p2561
g2434
sS'0x403c26'
p2562
g2480
ssg161
(dp2563
S'0x40824a'
p2564
g1690
ssg169
(dp2565
sg174
(dp2566
S'0x4010a5'
p2567
g2457
sS'0x402520'
p2568
g1897
ssg202
(dp2569
sg207
(dp2570
S'0x402670'
p2571
g2354
sS'0x401ad5'
p2572
g2396
ssg212
(dp2573
S'0x407cda'
p2574
g2214
ssg226
(dp2575
S'0x4078c8'
p2576
g2203
ssg237
(dp2577
S'0x405712'
p2578
g1615
sS'0x4081e3'
p2579
g2283
sS'0x4052da'
p2580
g1973
sS'0x405393'
p2581
g1996
sS'0x4079d5'
p2582
g2264
sS'0x406a63'
p2583
g2389
ssg242
(dp2584
sg247
(dp2585
sg258
(dp2586
S'0x403e63'
p2587
g2153
ssg292
(dp2588
sg297
(dp2589
sg305
(dp2590
S'0x40412b'
p2591
g2086
ssg313
(dp2592
S'0x406dbe'
p2593
g2350
sS'0x408328'
p2594
g2060
ssg318
(dp2595
S'0x4010a5'
p2596
g2454
sS'0x405b05'
p2597
g1943
sS'0x402aa1'
p2598
g1774
sS'0x401ad5'
p2599
g2405
ssg323
(dp2600
S'0x40412b'
p2601
g2089
sS'0x4048a1'
p2602
g2488
sS'0x4048d2'
p2603
g1875
ssg328
(dp2604
S'0x4085d0'
p2605
g2020
ssg333
(dp2606
S'0x4059ec'
p2607
g2424
sS'0x4059f4'
p2608
g2003
sS'0x405ab1'
p2609
g1735
ssg338
(dp2610
sg343
(dp2611
S'0x406f33'
p2612
g1929
ssg348
(dp2613
S'0x40198f'
p2614
g1819
sS'0x4010a5'
p2615
g2460
sS'0x401ad5'
p2616
g2411
sS'0x40128a'
p2617
g1675
sS'0x4016d2'
p2618
g1806
ssg353
(dp2619
S'0x402aa1'
p2620
g1783
sS'0x403e63'
p2621
g2144
ssg358
(dp2622
S'0x402520'
p2623
g1888
ssg510
(dp2624
S'0x408328'
p2625
g2081
ssg515
(dp2626
S'0x402670'
p2627
g2384
ssg559
(dp2628
S'0x402670'
p2629
g2366
ssg570
(dp2630
S'0x403e63'
p2631
g2135
ssg581
(dp2632
S'0x406dbe'
p2633
g2347
sS'0x408328'
p2634
g2069
ssg595
(dp2635
S'0x405393'
p2636
g1999
ssg600
(dp2637
S'0x406b08'
p2638
g2492
ssg608
(dp2639
S'0x407cda'
p2640
g2208
ssg613
(dp2641
S'0x4067b2'
p2642
g1963
sS'0x40824a'
p2643
g1696
sS'0x407d30'
p2644
g1700
ssg618
(dp2645
S'0x4049f9'
p2646
g2172
ssg623
(dp2647
S'0x40486c'
p2648
g1743
sS'0x40343b'
p2649
g2027
sS'0x40484f'
p2650
g2054
ssg628
(dp2651
S'0x402670'
p2652
g2372
sS'0x40128a'
p2653
g1672
sS'0x402aa1'
p2654
g1771
sS'0x401ad5'
p2655
g2402
ssg633
(dp2656
sg638
(dp2657
S'0x401ad5'
p2658
g2408
ssg646
(dp2659
S'0x403f4e'
p2660
g1920
ssg651
(dp2661
S'0x40399b'
p2662
g2441
sS'0x40503c'
p2663
g2013
ssg659
(dp2664
S'0x40412b'
p2665
g2104
ssg664
(dp2666
sg669
(dp2667
S'0x405712'
p2668
g1612
sS'0x4069f9'
p2669
g2272
sS'0x4081e3'
p2670
g2277
sS'0x408004'
p2671
g1644
sS'0x4052da'
p2672
g1979
sS'0x4055e0'
p2673
g1728
sS'0x405393'
p2674
g1993
sS'0x4084bb'
p2675
g2160
sS'0x408328'
p2676
g2075
sS'0x4049f9'
p2677
g2190
sS'0x407a1d'
p2678
g2343
ssg674
(dp2679
S'0x402507'
p2680
g1711
ssg679
(dp2681
sg690
(dp2682
S'0x40867d'
p2683
g1747
sS'0x407172'
p2684
g1619
ssg725
(dp2685
S'0x402230'
p2686
g2032
sS'0x405b05'
p2687
g1955
sS'0x4010a5'
p2688
g2451
sS'0x402aa1'
p2689
g1768
sS'0x4016d2'
p2690
g1803
sS'0x40128a'
p2691
g1669
sS'0x4049f9'
p2692
g2175
sS'0x401ad5'
p2693
g2399
ssg730
(dp2694
S'0x404016'
p2695
g1854
ssg735
(dp2696
S'0x403f4e'
p2697
g1917
sS'0x403f59'
p2698
g1704
sS'0x403f7e'
p2699
g2245
ssg740
(dp2700
sg745
(dp2701
S'0x4016d2'
p2702
g1812
ssg767
(dp2703
S'0x4010a5'
p2704
g2469
sS'0x401ad5'
p2705
g2420
sS'0x40128a'
p2706
g1684
sS'0x4016d2'
p2707
g1815
ssg772
(dp2708
S'0x4072f7'
p2709
g2231
ssg786
(dp2710
S'0x402315'
p2711
g2294
sS'0x4055e0'
p2712
g1731
sS'0x408328'
p2713
g2066
ssg791
(dp2714
S'0x403f4e'
p2715
g1914
sS'0x405acc'
p2716
g1910
sS'0x403f59'
p2717
g1707
sS'0x403f7e'
p2718
g2248
ssg811
(dp2719
S'0x404c57'
p2720
g1871
ssg816
(dp2721
S'0x40684c'
p2722
g2223
sS'0x404016'
p2723
g1857
ssg827
(dp2724
S'0x403e63'
p2725
g2150
ssg832
(dp2726
S'0x406e74'
p2727
g2315
sS'0x40818b'
p2728
g2336
ssg837
(dp2729
S'0x403e63'
p2730
g2156
ssg845
(dp2731
sg855
(dp2732
S'0x403afb'
p2733
g2121
ssg863
(dp2734
S'0x4010a5'
p2735
g2466
sS'0x402670'
p2736
g2381
sS'0x40128a'
p2737
g1681
sS'0x402aa1'
p2738
g1789
sS'0x401ad5'
p2739
g2417
ssg868
(dp2740
S'0x402670'
p2741
g2357
sS'0x4010a5'
p2742
g2448
sS'0x4025e2'
p2743
g1718
sS'0x402315'
p2744
g2288
sS'0x402520'
p2745
g1891
sS'0x402aa1'
p2746
g1765
sS'0x40128a'
p2747
g1666
sS'0x4016d2'
p2748
g1800
ssg873
(dp2749
S'0x405b05'
p2750
g1952
ssg902
(dp2751
S'0x402315'
p2752
g2291
ssg918
(dp2753
S'0x4078c8'
p2754
g2197
sS'0x40795f'
p2755
g1838
ssg923
(dp2756
S'0x40867d'
p2757
g1750
sS'0x4034f8'
p2758
g2484
ssg928
(dp2759
S'0x403fe0'
p2760
g2325
sS'0x408328'
p2761
g2072
sS'0x4077f3'
p2762
g2304
ssg936
(dp2763
sg941
(dp2764
sg946
(dp2765
S'0x4038c5'
p2766
g2117
ssg951
(dp2767
S'0x408004'
p2768
g1638
ssg967
(dp2769
S'0x4058bd'
p2770
g1829
ssg975
(dp2771
S'0x40343b'
p2772
g2024
ssg980
(dp2773
S'0x402670'
p2774
g2369
ssg988
(dp2775
S'0x402670'
p2776
g2363
ssg1002
(dp2777
sg1007
(dp2778
sg1027
(dp2779
S'0x4081e3'
p2780
g2280
ssg1032
(dp2781
S'0x4050fe'
p2782
g1596
ssg1037
(dp2783
S'0x405cdc'
p2784
g1833
ssg1042
(dp2785
S'0x4049e4'
p2786
g2241
ssg1075
(dp2787
S'0x407968'
p2788
g2039
ssg1082
(dp2789
S'0x40412b'
p2790
g2092
ssg1087
(dp2791
S'0x406b08'
p2792
g2495
ssg1095
(dp2793
S'0x40399b'
p2794
g2438
ssg1100
(dp2795
S'0x402511'
p2796
g1884
ssg1105
(dp2797
S'0x407903'
p2798
g2252
sS'0x404016'
p2799
g1851
ssg1122
(dp2800
S'0x406007'
p2801
g2047
ssg1139
(dp2802
S'0x405393'
p2803
g1990
sS'0x405282'
p2804
g1655
sS'0x4052da'
p2805
g1967
ssg1144
(dp2806
S'0x408004'
p2807
g1626
ssg1152
(dp2808
S'0x402670'
p2809
g2375
ssg1157
(dp2810
S'0x40412b'
p2811
g2095
ssg1167
(dp2812
S'0x40399b'
p2813
g2444
sS'0x40503c'
p2814
g2016
ssg1175
(dp2815
S'0x403e63'
p2816
g2138
ssg1183
(dp2817
S'0x4078c8'
p2818
g2200
sS'0x407cda'
p2819
g2217
ssg1188
(dp2820
S'0x403fa2'
p2821
g1880
sS'0x4033ae'
p2822
g1925
ssg1193
(dp2823
S'0x408448'
p2824
g2235
ssg1209
(dp2825
sg1214
(dp2826
S'0x40593e'
p2827
g1754
sS'0x4059f4'
p2828
g2006
sS'0x4059ec'
p2829
g2427
ssg1219
(dp2830
S'0x406f33'
p2831
g1935
ssg1224
(dp2832
sg1229
(dp2833
S'0x4059ec'
p2834
g2430
sS'0x4059f4'
p2835
g2009
ssg1242
(dp2836
S'0x404016'
p2837
g1848
ssg1247
(dp2838
S'0x40412b'
p2839
g2107
ssg1252
(dp2840
S'0x408004'
p2841
g1635
ssg1257
(dp2842
S'0x40412b'
p2843
g2098
ssg1262
(dp2844
S'0x4025e2'
p2845
g1721
ssg1319
(dp2846
S'0x406a63'
p2847
g2392
ssg1327
(dp2848
S'0x406f33'
p2849
g1932
ssg1338
(dp2850
S'0x4049f9'
p2851
g2181
ssg1345
(dp2852
S'0x403fb4'
p2853
g2256
ssg1353
(dp2854
S'0x404935'
p2855
g2043
sS'0x407172'
p2856
g1622
ssg1376
(dp2857
S'0x408004'
p2858
g1629
ssg1381
(dp2859
S'0x408004'
p2860
g1650
sS'0x406e74'
p2861
g2321
ssg1395
(dp2862
S'0x407cda'
p2863
g2211
sS'0x408004'
p2864
g1632
sS'0x4052da'
p2865
g1970
sS'0x4055e0'
p2866
g1725
sS'0x4082fd'
p2867
g1842
sS'0x406b08'
p2868
g2498
sS'0x408328'
p2869
g2063
sS'0x4049f9'
p2870
g2178
ssg1403
(dp2871
S'0x403e63'
p2872
g2141
ssg1459
(dp2873
S'0x406007'
p2874
g2050
ssg1467
(dp2875
sg1472
(dp2876
S'0x40198f'
p2877
g1825
ssg1494
(dp2878
sg1499
(dp2879
S'0x403e63'
p2880
g2126
ssg1504
(dp2881
S'0x402670'
p2882
g2360
ssg1513
(dp2883
S'0x402670'
p2884
g2378
sS'0x4025e2'
p2885
g1715
sS'0x402aa1'
p2886
g1780
ssg1533
(dp2887
S'0x405282'
p2888
g1658
ssg1538
(dp2889
S'0x408328'
p2890
g2078
sS'0x403fb4'
p2891
g2259
sS'0x4077f3'
p2892
g2310
ssg1543
(dp2893
sg1548
(dp2894
S'0x407a8b'
p2895
g1904
sS'0x40198f'
p2896
g1822
sS'0x402230'
p2897
g2035
sS'0x402aa1'
p2898
g1777
sS'0x407d87'
p2899
g1604
sS'0x406c75'
p2900
g2332
ssg1553
(dp2901
S'0x403c04'
p2902
g1761
sS'0x403c15'
p2903
g1867
ssg1567
(dp2904
S'0x403583'
p2905
g1863
sS'0x4049f9'
p2906
g2187
ssg1575
(dp2907
S'0x40412b'
p2908
g2110
ssg1580
(dp2909
ssb.